target datalayout = "e-m:e-p270:32:32-p271:32:32-p272:64:64-i64:64-i128:128-f80:128-n8:16:32:64-S128"
target triple = "x86_64-pc-linux-gnu"

%struct.message = type { ptr, i32, i32, ptr, ptr, ptr, ptr, ptr, ptr, i64, i32, ptr, ptr, ptr, ptr, ptr, i8, i8, i8, i8, ptr }

@.str.58 = private unnamed_addr constant [29 x i8] c"%d trailing bytes to export\0A\00", align 1

; Function Attrs: nounwind uwtable
define ptr @base64Flush(ptr noundef %0, ptr noundef %1) #0 {
  %3 = alloca ptr, align 8
  %4 = alloca ptr, align 8
  %5 = alloca ptr, align 8
  %6 = alloca ptr, align 8
  store ptr %0, ptr %4, align 8
  store ptr %1, ptr %5, align 8
  %7 = load ptr, ptr %4, align 8
  %8 = getelementptr inbounds %struct.message, ptr %7, i32 0, i32 10
  %9 = load i32, ptr %8, align 8
  call void (ptr, ...) @cli_dbgmsg(ptr noundef @.str.58, i32 noundef %9)
  %10 = load ptr, ptr %4, align 8
  %11 = getelementptr inbounds %struct.message, ptr %10, i32 0, i32 10
  %12 = load i32, ptr %11, align 8
  %13 = icmp ne i32 %12, 0
  br i1 %13, label %14, label %21

14:                                               ; preds = %2
  %15 = load ptr, ptr %4, align 8
  %16 = load ptr, ptr %5, align 8
  %17 = call ptr @decode(ptr noundef %15, ptr noundef null, ptr noundef %16, ptr noundef @base64, i1 noundef zeroext false)
  store ptr %17, ptr %6, align 8
  %18 = load ptr, ptr %4, align 8
  %19 = getelementptr inbounds %struct.message, ptr %18, i32 0, i32 10
  store i32 0, ptr %19, align 8
  %20 = load ptr, ptr %6, align 8
  store ptr %20, ptr %3, align 8
  br label %22

21:                                               ; preds = %2
  store ptr null, ptr %3, align 8
  br label %22

22:                                               ; preds = %21, %14
  %23 = load ptr, ptr %3, align 8
  ret ptr %23
}