; Function Attrs: nounwind uwtable
define ptr @base64Flush(ptr nocapture noundef %0, ptr noundef %1) local_unnamed_addr #2 {
  %3 = getelementptr inbounds i8, ptr %0, i64 72
  %4 = load i32, ptr %3, align 8
  tail call void (ptr, ...) @cli_dbgmsg(ptr noundef nonnull @.str.58, i32 noundef %4) #21
  %5 = load i32, ptr %3, align 8
  %.not = icmp eq i32 %5, 0
  br i1 %.not, label %8, label %6

6:                                                ; preds = %2
  %7 = tail call fastcc ptr @decode(ptr noundef nonnull %0, ptr noundef null, ptr noundef %1, ptr noundef nonnull @base64, i1 noundef zeroext false)
  store i32 0, ptr %3, align 8
  br label %8

8:                                                ; preds = %2, %6
  %.0 = phi ptr [ %7, %6 ], [ null, %2 ]
  ret ptr %.0
}